target datalayout = "e-m:e-p270:32:32-p271:32:32-p272:64:64-i64:64-i128:128-f80:128-n8:16:32:64-S128"
target triple = "x86_64-pc-linux-gnu"

%struct.nghttp2_frame_hd = type { i64, i32, i8, i8, i8 }
%struct.nghttp2_extension = type { %struct.nghttp2_frame_hd, ptr }
%struct.nghttp2_ext_priority_update = type { i32, ptr, i64 }

@.str.1 = private unnamed_addr constant [113 x i8] c"generated/home/dtcxzyw/WorkSpace/Projects/compilers/llvm-opt-benchmark/bench/nghttp2/nghttp2/lib/nghttp2_frame.c\00", align 1
@.str.9 = private unnamed_addr constant [16 x i8] c"payloadlen >= 4\00", align 1
@__PRETTY_FUNCTION__.nghttp2_frame_unpack_priority_update_payload = private unnamed_addr constant [90 x i8] c"void nghttp2_frame_unpack_priority_update_payload(nghttp2_extension *, uint8_t *, size_t)\00", align 1

; Function Attrs: nounwind uwtable
define hidden void @nghttp2_frame_unpack_priority_update_payload(ptr noundef %0, ptr noundef %1, i64 noundef %2) #0 {
  %4 = alloca ptr, align 8
  %5 = alloca ptr, align 8
  %6 = alloca i64, align 8
  %7 = alloca ptr, align 8
  store ptr %0, ptr %4, align 8, !tbaa !8
  store ptr %1, ptr %5, align 8, !tbaa !3
  store i64 %2, ptr %6, align 8, !tbaa !18
  call void @llvm.lifetime.start.p0(i64 8, ptr %7) #7
  %8 = load i64, ptr %6, align 8, !tbaa !18
  %9 = icmp uge i64 %8, 4
  br i1 %9, label %10, label %11

10:                                               ; preds = %3
  br label %12

11:                                               ; preds = %3
  call void @__assert_fail(ptr noundef @.str.9, ptr noundef @.str.1, i32 noundef 924, ptr noundef @__PRETTY_FUNCTION__.nghttp2_frame_unpack_priority_update_payload) #8
  unreachable

12:                                               ; preds = %10
  %13 = load ptr, ptr %4, align 8, !tbaa !8
  %14 = getelementptr inbounds nuw %struct.nghttp2_extension, ptr %13, i32 0, i32 1
  %15 = load ptr, ptr %14, align 8, !tbaa !49
  store ptr %15, ptr %7, align 8, !tbaa !8
  %16 = load ptr, ptr %5, align 8, !tbaa !3
  %17 = call i32 @nghttp2_get_uint32(ptr noundef %16)
  %18 = and i32 %17, 2147483647
  %19 = load ptr, ptr %7, align 8, !tbaa !8
  %20 = getelementptr inbounds nuw %struct.nghttp2_ext_priority_update, ptr %19, i32 0, i32 0
  store i32 %18, ptr %20, align 8, !tbaa !63
  %21 = load i64, ptr %6, align 8, !tbaa !18
  %22 = icmp ugt i64 %21, 4
  br i1 %22, label %23, label %32

23:                                               ; preds = %12
  %24 = load ptr, ptr %5, align 8, !tbaa !3
  %25 = getelementptr inbounds i8, ptr %24, i64 4
  %26 = load ptr, ptr %7, align 8, !tbaa !8
  %27 = getelementptr inbounds nuw %struct.nghttp2_ext_priority_update, ptr %26, i32 0, i32 1
  store ptr %25, ptr %27, align 8, !tbaa !65
  %28 = load i64, ptr %6, align 8, !tbaa !18
  %29 = sub i64 %28, 4
  %30 = load ptr, ptr %7, align 8, !tbaa !8
  %31 = getelementptr inbounds nuw %struct.nghttp2_ext_priority_update, ptr %30, i32 0, i32 2
  store i64 %29, ptr %31, align 8, !tbaa !66
  br label %37

32:                                               ; preds = %12
  %33 = load ptr, ptr %7, align 8, !tbaa !8
  %34 = getelementptr inbounds nuw %struct.nghttp2_ext_priority_update, ptr %33, i32 0, i32 1
  store ptr null, ptr %34, align 8, !tbaa !65
  %35 = load ptr, ptr %7, align 8, !tbaa !8
  %36 = getelementptr inbounds nuw %struct.nghttp2_ext_priority_update, ptr %35, i32 0, i32 2
  store i64 0, ptr %36, align 8, !tbaa !66
  br label %37

37:                                               ; preds = %32, %23
  call void @llvm.lifetime.end.p0(i64 8, ptr %7) #7
  ret void
}