; Function Attrs: nounwind uwtable
define hidden void @nghttp2_frame_unpack_priority_update_payload(ptr noundef readonly captures(none) %0, ptr noundef %1, i64 noundef %2) local_unnamed_addr #0 {
  %4 = icmp ugt i64 %2, 3
  br i1 %4, label %6, label %5

5:                                                ; preds = %3
  tail call void @__assert_fail(ptr noundef nonnull @.str.9, ptr noundef nonnull @.str.1, i32 noundef 924, ptr noundef nonnull @__PRETTY_FUNCTION__.nghttp2_frame_unpack_priority_update_payload) #19
  unreachable

6:                                                ; preds = %3
  %7 = getelementptr inbounds nuw i8, ptr %0, i64 16
  %8 = load ptr, ptr %7, align 8, !tbaa !46
  %9 = tail call i32 @nghttp2_get_uint32(ptr noundef %1) #18
  %10 = and i32 %9, 2147483647
  store i32 %10, ptr %8, align 8, !tbaa !60
  %.not = icmp eq i64 %2, 4
  %11 = getelementptr inbounds nuw i8, ptr %1, i64 4
  %12 = add i64 %2, -4
  %.sink10 = select i1 %.not, ptr null, ptr %11
  %13 = getelementptr inbounds nuw i8, ptr %8, i64 8
  store ptr %.sink10, ptr %13, align 8, !tbaa !62
  %14 = getelementptr inbounds nuw i8, ptr %8, i64 16
  store i64 %12, ptr %14, align 8, !tbaa !63
  ret void
}